; Function Attrs: nounwind uwtable
define void @lv_cache_destroy(ptr noundef %0, ptr noundef %1) local_unnamed_addr #0 {
  %.not = icmp eq ptr %0, null
  br i1 %.not, label %.preheader, label %3

.preheader:                                       ; preds = %2, %.preheader
  br label %.preheader

3:                                                ; preds = %2
  %4 = getelementptr inbounds nuw i8, ptr %0, i64 48
  %5 = tail call i32 @lv_mutex_lock(ptr noundef nonnull %4) #5
  %6 = load ptr, ptr %0, align 8, !tbaa !8
  %7 = getelementptr inbounds nuw i8, ptr %6, i64 16
  %8 = load ptr, ptr %7, align 8, !tbaa !18
  tail call void %8(ptr noundef nonnull %0, ptr noundef %1) #5
  %9 = tail call i32 @lv_mutex_unlock(ptr noundef nonnull %4) #5
  %10 = tail call i32 @lv_mutex_delete(ptr noundef nonnull %4) #5
  tail call void @lv_free(ptr noundef nonnull %0) #5
  ret void
}